(dp0
S'OriginalConfig'
p1
ccopy_reg
_reconstructor
p2
(cWMCore.Configuration
Configuration
p3
c__builtin__
object
p4
Ntp5
Rp6
(dp7
S'Site'
p8
g2
(cWMCore.Configuration
ConfigSection
p9
g4
Ntp10
Rp11
(dp12
S'_internal_skipChecks'
p13
I00
sS'_internal_documentation'
p14
S''
p15
sS'_internal_settings'
p16
c__builtin__
set
p17
((lp18
S'storageSite'
p19
atp20
Rp21
sS'_internal_name'
p22
g8
sS'_internal_docstrings'
p23
(dp24
sS'_internal_children'
p25
g17
((lp26
tp27
Rp28
sg19
S'T2_CH_CSCS'
p29
sS'_internal_parent_ref'
p30
NsbsS'_internal_sections'
p31
(lp32
S'General'
p33
aS'JobType'
p34
aS'Data'
p35
ag8
aS'User'
p36
aS'Debug'
p37
asg36
g2
(g9
g4
Ntp38
Rp39
(dp40
g13
I00
sg14
g15
sg16
g17
((lp41
tp42
Rp43
sg22
g36
sg23
(dp44
sg25
g17
((lp45
tp46
Rp47
sg30
Nsbsg37
g2
(g9
g4
Ntp48
Rp49
(dp50
g13
I00
sg14
g15
sg16
g17
((lp51
tp52
Rp53
sg22
g37
sg23
(dp54
sg25
g17
((lp55
tp56
Rp57
sg30
Nsbsg33
g2
(g9
g4
Ntp58
Rp59
(dp60
S'workArea'
p61
S'crab_privateMC'
p62
sg13
I00
sg14
g15
sg16
g17
((lp63
g61
aS'transferOutputs'
p64
aS'transferLogs'
p65
aS'requestName'
p66
atp67
Rp68
sg22
g33
sg23
(dp69
sg64
I01
sg25
g17
((lp70
tp71
Rp72
sg66
S'BtoXjpsillInclusivedecay20221504'
p73
sg30
Nsg65
I00
sbsg35
g2
(g9
g4
Ntp74
Rp75
(dp76
S'inputDataset'
p77
g15
sS'outputDatasetTag'
p78
S'SPRING21'
p79
sS'outputPrimaryDataset'
p80
g73
sg13
I00
sS'splitting'
p81
S'EventBased'
p82
sS'unitsPerJob'
p83
I99
sg14
g15
sg16
g17
((lp84
g77
ag78
aS'totalUnits'
p85
ag83
aS'inputDBS'
p86
ag81
aS'outLFNDirBase'
p87
ag80
aS'publication'
p88
atp89
Rp90
sg22
g35
sg86
S'global'
p91
sg23
(dp92
sg25
g17
((lp93
tp94
Rp95
sg88
I01
sg87
S'/store/user/jodedra/BtoXjpsillInclusivedecay20221504'
p96
sg30
Nsg85
I990000
sbsg34
g2
(g9
g4
Ntp97
Rp98
(dp99
g13
I00
sg14
g15
sg16
g17
((lp100
S'psetName'
p101
aS'pluginName'
p102
aS'maxMemoryMB'
p103
atp104
Rp105
sg22
g34
sg23
(dp106
sg102
S'PrivateMC'
p107
sg25
g17
((lp108
tp109
Rp110
sg101
S'GS_CharmoniumbtojpsiKll.py'
p111
sg30
Nsg103
I5000
sbsbsS'voGroup'
p112
g15
sS'Server'
p113
S'cmsweb.cern.ch'
p114
sS'instance'
p115
S'prod'
p116
sS'RequestName'
p117
V220415_015156:jodedra_crab_BtoXjpsillInclusivedecay20221504
p118
sS'voRole'
p119
S'NULL'
p120
sS'Port'
p121
g15
s.